
blink.elf:     file format elf32-littleriscv


Disassembly of section .text:

10000000 <start>:
10000000:	00000093          	li	ra,0
10000004:	00000193          	li	gp,0
10000008:	00000213          	li	tp,0
1000000c:	00000293          	li	t0,0
10000010:	00000313          	li	t1,0
10000014:	00000393          	li	t2,0
10000018:	00000413          	li	s0,0
1000001c:	00000493          	li	s1,0
10000020:	00000513          	li	a0,0
10000024:	00000593          	li	a1,0
10000028:	00000613          	li	a2,0
1000002c:	00000693          	li	a3,0
10000030:	00000713          	li	a4,0
10000034:	00000793          	li	a5,0
10000038:	00000813          	li	a6,0
1000003c:	00000893          	li	a7,0
10000040:	00000913          	li	s2,0
10000044:	00000993          	li	s3,0
10000048:	00000a13          	li	s4,0
1000004c:	00000a93          	li	s5,0
10000050:	00000b13          	li	s6,0
10000054:	00000b93          	li	s7,0
10000058:	00000c13          	li	s8,0
1000005c:	00000c93          	li	s9,0
10000060:	00000d13          	li	s10,0
10000064:	00000d93          	li	s11,0
10000068:	00000e13          	li	t3,0
1000006c:	00000e93          	li	t4,0
10000070:	00000f13          	li	t5,0
10000074:	00000f93          	li	t6,0
10000078:	00000517          	auipc	a0,0x0
1000007c:	32450513          	addi	a0,a0,804 # 1000039c <_etext>
10000080:	f1000597          	auipc	a1,0xf1000
10000084:	f8058593          	addi	a1,a1,-128 # 1000000 <_ebss>
10000088:	f1000617          	auipc	a2,0xf1000
1000008c:	f7860613          	addi	a2,a2,-136 # 1000000 <_ebss>
10000090:	00c5dc63          	bge	a1,a2,100000a8 <end_init_data>

10000094 <loop_init_data>:
10000094:	00052683          	lw	a3,0(a0)
10000098:	00d5a023          	sw	a3,0(a1)
1000009c:	00450513          	addi	a0,a0,4
100000a0:	00458593          	addi	a1,a1,4
100000a4:	fec5c8e3          	blt	a1,a2,10000094 <loop_init_data>

100000a8 <end_init_data>:
100000a8:	f1000517          	auipc	a0,0xf1000
100000ac:	f5850513          	addi	a0,a0,-168 # 1000000 <_ebss>
100000b0:	f1000597          	auipc	a1,0xf1000
100000b4:	f5058593          	addi	a1,a1,-176 # 1000000 <_ebss>
100000b8:	00b55863          	bge	a0,a1,100000c8 <end_init_bss>

100000bc <loop_init_bss>:
100000bc:	00052023          	sw	zero,0(a0)
100000c0:	00450513          	addi	a0,a0,4
100000c4:	feb54ce3          	blt	a0,a1,100000bc <loop_init_bss>

100000c8 <end_init_bss>:
100000c8:	0b4000ef          	jal	ra,1000017c <main>

100000cc <loop>:
100000cc:	0000006f          	j	100000cc <loop>

100000d0 <flashio_worker_begin>:
100000d0:	280002b7          	lui	t0,0x28000
100000d4:	12000313          	li	t1,288
100000d8:	00629023          	sh	t1,0(t0) # 28000000 <_etext+0x17fffc64>
100000dc:	000281a3          	sb	zero,3(t0)
100000e0:	02060863          	beqz	a2,10000110 <flashio_worker_L1>
100000e4:	00800f13          	li	t5,8
100000e8:	0ff67393          	zext.b	t2,a2

100000ec <flashio_worker_L4>:
100000ec:	0073de93          	srli	t4,t2,0x7
100000f0:	01d28023          	sb	t4,0(t0)
100000f4:	010eee93          	ori	t4,t4,16
100000f8:	01d28023          	sb	t4,0(t0)
100000fc:	00139393          	slli	t2,t2,0x1
10000100:	0ff3f393          	zext.b	t2,t2
10000104:	ffff0f13          	addi	t5,t5,-1
10000108:	fe0f12e3          	bnez	t5,100000ec <flashio_worker_L4>
1000010c:	00628023          	sb	t1,0(t0)

10000110 <flashio_worker_L1>:
10000110:	06058063          	beqz	a1,10000170 <flashio_worker_L3>
10000114:	02000f13          	li	t5,32
10000118:	00052383          	lw	t2,0(a0)

1000011c <flashio_worker_LY>:
1000011c:	00800f93          	li	t6,8

10000120 <flashio_worker_L2>:
10000120:	01f3de93          	srli	t4,t2,0x1f
10000124:	01d28023          	sb	t4,0(t0)
10000128:	010eee93          	ori	t4,t4,16
1000012c:	01d28023          	sb	t4,0(t0)
10000130:	0002ce83          	lbu	t4,0(t0)
10000134:	002efe93          	andi	t4,t4,2
10000138:	001ede93          	srli	t4,t4,0x1
1000013c:	00139393          	slli	t2,t2,0x1
10000140:	01d3e3b3          	or	t2,t2,t4
10000144:	ffff0f13          	addi	t5,t5,-1
10000148:	000f1863          	bnez	t5,10000158 <flashio_worker_LX>
1000014c:	00752023          	sw	t2,0(a0)
10000150:	00450513          	addi	a0,a0,4
10000154:	00052383          	lw	t2,0(a0)

10000158 <flashio_worker_LX>:
10000158:	ffff8f93          	addi	t6,t6,-1
1000015c:	fc0f92e3          	bnez	t6,10000120 <flashio_worker_L2>
10000160:	fff58593          	addi	a1,a1,-1
10000164:	fa059ce3          	bnez	a1,1000011c <flashio_worker_LY>
10000168:	000f0463          	beqz	t5,10000170 <flashio_worker_L3>
1000016c:	00752023          	sw	t2,0(a0)

10000170 <flashio_worker_L3>:
10000170:	08000313          	li	t1,128
10000174:	006281a3          	sb	t1,3(t0)
10000178:	00008067          	ret

1000017c <main>:
1000017c:	fe010113          	addi	sp,sp,-32
10000180:	00812e23          	sw	s0,28(sp)
10000184:	02010413          	addi	s0,sp,32
10000188:	00100793          	li	a5,1
1000018c:	fef42423          	sw	a5,-24(s0)
10000190:	260007b7          	lui	a5,0x26000
10000194:	02478793          	addi	a5,a5,36 # 26000024 <_etext+0x15fffc88>
10000198:	00002737          	lui	a4,0x2
1000019c:	c0370713          	addi	a4,a4,-1021 # 1c03 <_ebss-0xffe3fd>
100001a0:	00e7a023          	sw	a4,0(a5)
100001a4:	260007b7          	lui	a5,0x26000
100001a8:	02878793          	addi	a5,a5,40 # 26000028 <_etext+0x15fffc8c>
100001ac:	00002737          	lui	a4,0x2
100001b0:	c0170713          	addi	a4,a4,-1023 # 1c01 <_ebss-0xffe3ff>
100001b4:	00e7a023          	sw	a4,0(a5)
100001b8:	260007b7          	lui	a5,0x26000
100001bc:	02c78793          	addi	a5,a5,44 # 2600002c <_etext+0x15fffc90>
100001c0:	00001737          	lui	a4,0x1
100001c4:	90070713          	addi	a4,a4,-1792 # 900 <_ebss-0xfff700>
100001c8:	00e7a023          	sw	a4,0(a5)
100001cc:	260007b7          	lui	a5,0x26000
100001d0:	03078793          	addi	a5,a5,48 # 26000030 <_etext+0x15fffc94>
100001d4:	48000713          	li	a4,1152
100001d8:	00e7a023          	sw	a4,0(a5)
100001dc:	260007b7          	lui	a5,0x26000
100001e0:	03478793          	addi	a5,a5,52 # 26000034 <_etext+0x15fffc98>
100001e4:	24000713          	li	a4,576
100001e8:	00e7a023          	sw	a4,0(a5)
100001ec:	260007b7          	lui	a5,0x26000
100001f0:	03878793          	addi	a5,a5,56 # 26000038 <_etext+0x15fffc9c>
100001f4:	42000713          	li	a4,1056
100001f8:	00e7a023          	sw	a4,0(a5)
100001fc:	260007b7          	lui	a5,0x26000
10000200:	03c78793          	addi	a5,a5,60 # 2600003c <_etext+0x15fffca0>
10000204:	0e000713          	li	a4,224
10000208:	00e7a023          	sw	a4,0(a5)
1000020c:	260007b7          	lui	a5,0x26000
10000210:	04078793          	addi	a5,a5,64 # 26000040 <_etext+0x15fffca4>
10000214:	10800713          	li	a4,264
10000218:	00e7a023          	sw	a4,0(a5)
1000021c:	260007b7          	lui	a5,0x26000
10000220:	04478793          	addi	a5,a5,68 # 26000044 <_etext+0x15fffca8>
10000224:	03800713          	li	a4,56
10000228:	00e7a023          	sw	a4,0(a5)
1000022c:	260007b7          	lui	a5,0x26000
10000230:	04878793          	addi	a5,a5,72 # 26000048 <_etext+0x15fffcac>
10000234:	04200713          	li	a4,66
10000238:	00e7a023          	sw	a4,0(a5)
1000023c:	260007b7          	lui	a5,0x26000
10000240:	04c78793          	addi	a5,a5,76 # 2600004c <_etext+0x15fffcb0>
10000244:	02c00713          	li	a4,44
10000248:	00e7a023          	sw	a4,0(a5)
1000024c:	260007b7          	lui	a5,0x26000
10000250:	05078793          	addi	a5,a5,80 # 26000050 <_etext+0x15fffcb4>
10000254:	00001737          	lui	a4,0x1
10000258:	01470713          	addi	a4,a4,20 # 1014 <_ebss-0xffefec>
1000025c:	00e7a023          	sw	a4,0(a5)
10000260:	260007b7          	lui	a5,0x26000
10000264:	05478793          	addi	a5,a5,84 # 26000054 <_etext+0x15fffcb8>
10000268:	40300713          	li	a4,1027
1000026c:	00e7a023          	sw	a4,0(a5)
10000270:	260007b7          	lui	a5,0x26000
10000274:	05878793          	addi	a5,a5,88 # 26000058 <_etext+0x15fffcbc>
10000278:	00002737          	lui	a4,0x2
1000027c:	c0470713          	addi	a4,a4,-1020 # 1c04 <_ebss-0xffe3fc>
10000280:	00e7a023          	sw	a4,0(a5)
10000284:	260007b7          	lui	a5,0x26000
10000288:	05c78793          	addi	a5,a5,92 # 2600005c <_etext+0x15fffcc0>
1000028c:	10000713          	li	a4,256
10000290:	00e7a023          	sw	a4,0(a5)
10000294:	260007b7          	lui	a5,0x26000
10000298:	06078793          	addi	a5,a5,96 # 26000060 <_etext+0x15fffcc4>
1000029c:	70100713          	li	a4,1793
100002a0:	00e7a023          	sw	a4,0(a5)
100002a4:	260007b7          	lui	a5,0x26000
100002a8:	06478793          	addi	a5,a5,100 # 26000064 <_etext+0x15fffcc8>
100002ac:	00001737          	lui	a4,0x1
100002b0:	84070713          	addi	a4,a4,-1984 # 840 <_ebss-0xfff7c0>
100002b4:	00e7a023          	sw	a4,0(a5)
100002b8:	260007b7          	lui	a5,0x26000
100002bc:	06878793          	addi	a5,a5,104 # 26000068 <_etext+0x15fffccc>
100002c0:	0c000713          	li	a4,192
100002c4:	00e7a023          	sw	a4,0(a5)
100002c8:	260007b7          	lui	a5,0x26000
100002cc:	06c78793          	addi	a5,a5,108 # 2600006c <_etext+0x15fffcd0>
100002d0:	0007a023          	sw	zero,0(a5)
100002d4:	260007b7          	lui	a5,0x26000
100002d8:	00c78793          	addi	a5,a5,12 # 2600000c <_etext+0x15fffc70>
100002dc:	0007a023          	sw	zero,0(a5)
100002e0:	260007b7          	lui	a5,0x26000
100002e4:	01078793          	addi	a5,a5,16 # 26000010 <_etext+0x15fffc74>
100002e8:	0007a023          	sw	zero,0(a5)
100002ec:	260007b7          	lui	a5,0x26000
100002f0:	00100713          	li	a4,1
100002f4:	00e7a023          	sw	a4,0(a5) # 26000000 <_etext+0x15fffc64>
100002f8:	00000013          	nop
100002fc:	260007b7          	lui	a5,0x26000
10000300:	0007a703          	lw	a4,0(a5) # 26000000 <_etext+0x15fffc64>
10000304:	00100793          	li	a5,1
10000308:	fef70ae3          	beq	a4,a5,100002fc <main+0x180>
1000030c:	210007b7          	lui	a5,0x21000
10000310:	00478793          	addi	a5,a5,4 # 21000004 <_etext+0x10fffc68>
10000314:	0007a023          	sw	zero,0(a5)
10000318:	210007b7          	lui	a5,0x21000
1000031c:	00878793          	addi	a5,a5,8 # 21000008 <_etext+0x10fffc6c>
10000320:	0007a023          	sw	zero,0(a5)
10000324:	210007b7          	lui	a5,0x21000
10000328:	00c78793          	addi	a5,a5,12 # 2100000c <_etext+0x10fffc70>
1000032c:	0007a023          	sw	zero,0(a5)
10000330:	210007b7          	lui	a5,0x21000
10000334:	00100713          	li	a4,1
10000338:	00e7a023          	sw	a4,0(a5) # 21000000 <_etext+0x10fffc64>
1000033c:	210007b7          	lui	a5,0x21000
10000340:	0007a023          	sw	zero,0(a5) # 21000000 <_etext+0x10fffc64>
10000344:	fe042623          	sw	zero,-20(s0)
10000348:	0100006f          	j	10000358 <main+0x1dc>
1000034c:	fec42783          	lw	a5,-20(s0)
10000350:	00178793          	addi	a5,a5,1
10000354:	fef42623          	sw	a5,-20(s0)
10000358:	fec42703          	lw	a4,-20(s0)
1000035c:	000017b7          	lui	a5,0x1
10000360:	bb778793          	addi	a5,a5,-1097 # bb7 <_ebss-0xfff449>
10000364:	fee7d4e3          	bge	a5,a4,1000034c <main+0x1d0>
10000368:	210007b7          	lui	a5,0x21000
1000036c:	00100713          	li	a4,1
10000370:	00e7a023          	sw	a4,0(a5) # 21000000 <_etext+0x10fffc64>
10000374:	fe042623          	sw	zero,-20(s0)
10000378:	0100006f          	j	10000388 <main+0x20c>
1000037c:	fec42783          	lw	a5,-20(s0)
10000380:	00178793          	addi	a5,a5,1
10000384:	fef42623          	sw	a5,-20(s0)
10000388:	fec42703          	lw	a4,-20(s0)
1000038c:	000017b7          	lui	a5,0x1
10000390:	bb778793          	addi	a5,a5,-1097 # bb7 <_ebss-0xfff449>
10000394:	fee7d4e3          	bge	a5,a4,1000037c <main+0x200>
10000398:	fa5ff06f          	j	1000033c <main+0x1c0>

Disassembly of section .riscv.attributes:

00000000 <.riscv.attributes>:
   0:	1b41                	.2byte	0x1b41
   2:	0000                	.2byte	0x0
   4:	7200                	.2byte	0x7200
   6:	7369                	.2byte	0x7369
   8:	01007663          	bgeu	zero,a6,14 <_ebss-0xffffec>
   c:	0011                	.2byte	0x11
   e:	0000                	.2byte	0x0
  10:	1004                	.2byte	0x1004
  12:	7205                	.2byte	0x7205
  14:	3376                	.2byte	0x3376
  16:	6932                	.2byte	0x6932
  18:	7032                	.2byte	0x7032
  1a:	0030                	.2byte	0x30

Disassembly of section .comment:

00000000 <.comment>:
   0:	3a434347          	.4byte	0x3a434347
   4:	2820                	.2byte	0x2820
   6:	31202967          	.4byte	0x31202967
   a:	2e31                	.2byte	0x2e31
   c:	2e31                	.2byte	0x2e31
   e:	0030                	.2byte	0x30
